target datalayout = "e-m:e-p270:32:32-p271:32:32-p272:64:64-i64:64-i128:128-f80:128-n8:16:32:64-S128"
target triple = "x86_64-pc-linux-gnu"

%"class.llvm::StringRef" = type { ptr, i64 }
%"class.llvm::SmallVectorBase" = type { ptr, i32, i32 }
%"class.std::__cxx11::basic_string" = type { %"struct.std::__cxx11::basic_string<char>::_Alloc_hider", i64, %union.anon }
%"struct.std::__cxx11::basic_string<char>::_Alloc_hider" = type { ptr }
%union.anon = type { i64, [8 x i8] }
%"class.llvm::Module" = type <{ ptr, %"class.llvm::SymbolTableList", %"class.llvm::SymbolTableList.76", %"class.llvm::SymbolTableList.85", %"class.llvm::SymbolTableList.94", %"class.llvm::iplist", %"class.std::__cxx11::basic_string", %"class.std::unique_ptr", %"class.llvm::StringMap", %"class.std::unique_ptr.112", %"class.std::unique_ptr.120", %"class.std::__cxx11::basic_string", %"class.std::__cxx11::basic_string", %"class.std::__cxx11::basic_string", %"class.llvm::StringMap.128", %"class.llvm::DataLayout", %"class.llvm::StringMap.154", %"class.llvm::DenseMap.155", ptr, i8, [7 x i8] }>
%"class.llvm::SymbolTableList" = type { %"class.llvm::iplist_impl" }
%"class.llvm::iplist_impl" = type { %"class.llvm::simple_ilist" }
%"class.llvm::simple_ilist" = type { %"class.llvm::ilist_sentinel" }
%"class.llvm::ilist_sentinel" = type { %"class.llvm::ilist_node_impl" }
%"class.llvm::ilist_node_impl" = type { %"class.llvm::ilist_node_base" }
%"class.llvm::ilist_node_base" = type { %"class.llvm::ilist_detail::node_base_prevnext" }
%"class.llvm::ilist_detail::node_base_prevnext" = type { ptr, ptr }
%"class.llvm::SymbolTableList.76" = type { %"class.llvm::iplist_impl.77" }
%"class.llvm::iplist_impl.77" = type { %"class.llvm::simple_ilist.80" }
%"class.llvm::simple_ilist.80" = type { %"class.llvm::ilist_sentinel.82" }
%"class.llvm::ilist_sentinel.82" = type { %"class.llvm::ilist_node_impl.83" }
%"class.llvm::ilist_node_impl.83" = type { %"class.llvm::ilist_node_base" }
%"class.llvm::SymbolTableList.85" = type { %"class.llvm::iplist_impl.86" }
%"class.llvm::iplist_impl.86" = type { %"class.llvm::simple_ilist.89" }
%"class.llvm::simple_ilist.89" = type { %"class.llvm::ilist_sentinel.91" }
%"class.llvm::ilist_sentinel.91" = type { %"class.llvm::ilist_node_impl.92" }
%"class.llvm::ilist_node_impl.92" = type { %"class.llvm::ilist_node_base" }
%"class.llvm::SymbolTableList.94" = type { %"class.llvm::iplist_impl.95" }
%"class.llvm::iplist_impl.95" = type { %"class.llvm::simple_ilist.98" }
%"class.llvm::simple_ilist.98" = type { %"class.llvm::ilist_sentinel.100" }
%"class.llvm::ilist_sentinel.100" = type { %"class.llvm::ilist_node_impl.101" }
%"class.llvm::ilist_node_impl.101" = type { %"class.llvm::ilist_node_base" }
%"class.llvm::iplist" = type { %"class.llvm::iplist_impl.103" }
%"class.llvm::iplist_impl.103" = type { %"class.llvm::simple_ilist.105" }
%"class.llvm::simple_ilist.105" = type { %"class.llvm::ilist_sentinel.107" }
%"class.llvm::ilist_sentinel.107" = type { %"class.llvm::ilist_node_impl.108" }
%"class.llvm::ilist_node_impl.108" = type { %"class.llvm::ilist_node_base" }
%"class.std::unique_ptr" = type { %"struct.std::__uniq_ptr_data" }
%"struct.std::__uniq_ptr_data" = type { %"class.std::__uniq_ptr_impl" }
%"class.std::__uniq_ptr_impl" = type { %"class.std::tuple" }
%"class.std::tuple" = type { %"struct.std::_Tuple_impl" }
%"struct.std::_Tuple_impl" = type { %"struct.std::_Head_base.111" }
%"struct.std::_Head_base.111" = type { ptr }
%"class.llvm::StringMap" = type { %"class.llvm::StringMapImpl" }
%"class.llvm::StringMapImpl" = type { ptr, i32, i32, i32, i32 }
%"class.std::unique_ptr.112" = type { %"struct.std::__uniq_ptr_data.113" }
%"struct.std::__uniq_ptr_data.113" = type { %"class.std::__uniq_ptr_impl.114" }
%"class.std::__uniq_ptr_impl.114" = type { %"class.std::tuple.115" }
%"class.std::tuple.115" = type { %"struct.std::_Tuple_impl.116" }
%"struct.std::_Tuple_impl.116" = type { %"struct.std::_Head_base.119" }
%"struct.std::_Head_base.119" = type { ptr }
%"class.std::unique_ptr.120" = type { %"struct.std::__uniq_ptr_data.121" }
%"struct.std::__uniq_ptr_data.121" = type { %"class.std::__uniq_ptr_impl.122" }
%"class.std::__uniq_ptr_impl.122" = type { %"class.std::tuple.123" }
%"class.std::tuple.123" = type { %"struct.std::_Tuple_impl.124" }
%"struct.std::_Tuple_impl.124" = type { %"struct.std::_Head_base.127" }
%"struct.std::_Head_base.127" = type { ptr }
%"class.llvm::StringMap.128" = type { %"class.llvm::StringMapImpl" }
%"class.llvm::DataLayout" = type { i8, i32, i32, i32, %"struct.llvm::MaybeAlign", %"struct.llvm::MaybeAlign", i32, i32, %"class.llvm::SmallVector.129", %"class.llvm::SmallVector.135", %"class.llvm::SmallVector.140", %"class.llvm::SmallVector.142", %"class.llvm::SmallVector.144", %"class.std::__cxx11::basic_string", %"struct.llvm::Align", %"struct.llvm::Align", ptr, %"class.llvm::SmallVector.149" }
%"struct.llvm::MaybeAlign" = type { %"class.std::optional" }
%"class.std::optional" = type { %"struct.std::_Optional_base" }
%"struct.std::_Optional_base" = type { %"struct.std::_Optional_payload" }
%"struct.std::_Optional_payload" = type { %"struct.std::_Optional_payload_base" }
%"struct.std::_Optional_payload_base" = type { %"union.std::_Optional_payload_base<llvm::Align>::_Storage", i8 }
%"union.std::_Optional_payload_base<llvm::Align>::_Storage" = type { %"struct.std::_Optional_payload_base<llvm::Align>::_Empty_byte" }
%"struct.std::_Optional_payload_base<llvm::Align>::_Empty_byte" = type { i8 }
%"class.llvm::SmallVector.129" = type { %"class.llvm::SmallVectorImpl.130", %"struct.llvm::SmallVectorStorage.134" }
%"class.llvm::SmallVectorImpl.130" = type { %"class.llvm::SmallVectorTemplateBase.131" }
%"class.llvm::SmallVectorTemplateBase.131" = type { %"class.llvm::SmallVectorTemplateCommon.132" }
%"class.llvm::SmallVectorTemplateCommon.132" = type { %"class.llvm::SmallVectorBase.133" }
%"class.llvm::SmallVectorBase.133" = type { ptr, i64, i64 }
%"struct.llvm::SmallVectorStorage.134" = type { [8 x i8] }
%"class.llvm::SmallVector.135" = type { %"class.llvm::SmallVectorImpl.136", %"struct.llvm::SmallVectorStorage.139" }
%"class.llvm::SmallVectorImpl.136" = type { %"class.llvm::SmallVectorTemplateBase.137" }
%"class.llvm::SmallVectorTemplateBase.137" = type { %"class.llvm::SmallVectorTemplateCommon.138" }
%"class.llvm::SmallVectorTemplateCommon.138" = type { %"class.llvm::SmallVectorBase" }
%"struct.llvm::SmallVectorStorage.139" = type { [48 x i8] }
%"class.llvm::SmallVector.140" = type { %"class.llvm::SmallVectorImpl.136", %"struct.llvm::SmallVectorStorage.141" }
%"struct.llvm::SmallVectorStorage.141" = type { [32 x i8] }
%"class.llvm::SmallVector.142" = type { %"class.llvm::SmallVectorImpl.136", %"struct.llvm::SmallVectorStorage.143" }
%"struct.llvm::SmallVectorStorage.143" = type { [80 x i8] }
%"class.llvm::SmallVector.144" = type { %"class.llvm::SmallVectorImpl.145", %"struct.llvm::SmallVectorStorage.148" }
%"class.llvm::SmallVectorImpl.145" = type { %"class.llvm::SmallVectorTemplateBase.146" }
%"class.llvm::SmallVectorTemplateBase.146" = type { %"class.llvm::SmallVectorTemplateCommon.147" }
%"class.llvm::SmallVectorTemplateCommon.147" = type { %"class.llvm::SmallVectorBase" }
%"struct.llvm::SmallVectorStorage.148" = type { [128 x i8] }
%"struct.llvm::Align" = type { i8 }
%"class.llvm::SmallVector.149" = type { %"class.llvm::SmallVectorImpl.150", %"struct.llvm::SmallVectorStorage.153" }
%"class.llvm::SmallVectorImpl.150" = type { %"class.llvm::SmallVectorTemplateBase.151" }
%"class.llvm::SmallVectorTemplateBase.151" = type { %"class.llvm::SmallVectorTemplateCommon.152" }
%"class.llvm::SmallVectorTemplateCommon.152" = type { %"class.llvm::SmallVectorBase" }
%"struct.llvm::SmallVectorStorage.153" = type { [32 x i8] }
%"class.llvm::StringMap.154" = type { %"class.llvm::StringMapImpl" }
%"class.llvm::DenseMap.155" = type <{ ptr, i32, i32, i32, [4 x i8] }>
%"class.llvm::AttributeList" = type { ptr }
%"class.llvm::ArrayRef.335" = type { ptr, i64 }
%"class.llvm::FunctionCallee" = type { ptr, ptr }
%"class.llvm::TargetLibraryInfo" = type { ptr, %"class.std::bitset" }
%"class.std::bitset" = type { %"struct.std::_Base_bitset" }
%"struct.std::_Base_bitset" = type { [8 x i64] }
%"class.llvm::TargetLibraryInfoImpl" = type { [126 x i8], [2 x i8], %"class.llvm::DenseMap.376", i8, i8, i8, i8, i32, %"class.std::vector.379", %"class.std::vector.379" }
%"class.llvm::DenseMap.376" = type <{ ptr, i32, i32, i32, [4 x i8] }>
%"class.std::vector.379" = type { %"struct.std::_Vector_base.380" }
%"struct.std::_Vector_base.380" = type { %"struct.std::_Vector_base<llvm::VecDesc, std::allocator<llvm::VecDesc>>::_Vector_impl" }
%"struct.std::_Vector_base<llvm::VecDesc, std::allocator<llvm::VecDesc>>::_Vector_impl" = type { %"struct.std::_Vector_base<llvm::VecDesc, std::allocator<llvm::VecDesc>>::_Vector_impl_data" }
%"struct.std::_Vector_base<llvm::VecDesc, std::allocator<llvm::VecDesc>>::_Vector_impl_data" = type { ptr, ptr, ptr }

@.str.92 = private unnamed_addr constant [33 x i8] c"__llvm_profile_instrument_target\00", align 1
@.str.93 = private unnamed_addr constant [32 x i8] c"__llvm_profile_instrument_memop\00", align 1

; Function Attrs: mustprogress nounwind uwtable
define linkonce_odr hidden noundef i64 @_ZNSt11char_traitsIcE6lengthEPKc(ptr noundef %0) #1 comdat align 2 {
  %2 = alloca ptr, align 8
  store ptr %0, ptr %2, align 8
  %3 = load ptr, ptr %2, align 8
  %4 = call i64 @strlen(ptr noundef %3) #2
  ret i64 %4
}

; Function Attrs: mustprogress nounwind uwtable
define linkonce_odr hidden void @_ZN4llvm9StringRefC2EPKc(ptr noundef nonnull align 8 dereferenceable(16) %0, ptr noundef %1) unnamed_addr #1 comdat align 2 {
  %3 = alloca ptr, align 8
  %4 = alloca ptr, align 8
  store ptr %0, ptr %3, align 8
  store ptr %1, ptr %4, align 8
  %5 = load ptr, ptr %3, align 8
  %6 = getelementptr inbounds nuw %"class.llvm::StringRef", ptr %5, i32 0, i32 0
  %7 = load ptr, ptr %4, align 8
  store ptr %7, ptr %6, align 8
  %8 = getelementptr inbounds nuw %"class.llvm::StringRef", ptr %5, i32 0, i32 1
  %9 = load ptr, ptr %4, align 8
  %10 = icmp ne ptr %9, null
  br i1 %10, label %11, label %14

11:                                               ; preds = %2
  %12 = load ptr, ptr %4, align 8
  %13 = call noundef i64 @_ZNSt11char_traitsIcE6lengthEPKc(ptr noundef %12)
  br label %15

14:                                               ; preds = %2
  br label %15

15:                                               ; preds = %14, %11
  %16 = phi i64 [ %13, %11 ], [ 0, %14 ]
  store i64 %16, ptr %8, align 8
  ret void
}

; Function Attrs: mustprogress nounwind uwtable
define linkonce_odr hidden noundef i32 @_ZN4llvm17TargetLibraryInfo21getExtAttrForI32ParamEbbb(i1 noundef zeroext %0, i1 noundef zeroext %1, i1 noundef zeroext %2) #1 comdat align 2 {
  %4 = alloca i32, align 4
  %5 = alloca i8, align 1
  %6 = alloca i8, align 1
  %7 = alloca i8, align 1
  %8 = zext i1 %0 to i8
  store i8 %8, ptr %5, align 1
  %9 = zext i1 %1 to i8
  store i8 %9, ptr %6, align 1
  %10 = zext i1 %2 to i8
  store i8 %10, ptr %7, align 1
  %11 = load i8, ptr %5, align 1
  %12 = trunc i8 %11 to i1
  br i1 %12, label %13, label %17

13:                                               ; preds = %3
  %14 = load i8, ptr %7, align 1
  %15 = trunc i8 %14 to i1
  %16 = select i1 %15, i32 52, i32 75
  store i32 %16, ptr %4, align 4
  br label %22

17:                                               ; preds = %3
  %18 = load i8, ptr %6, align 1
  %19 = trunc i8 %18 to i1
  br i1 %19, label %20, label %21

20:                                               ; preds = %17
  store i32 52, ptr %4, align 4
  br label %22

21:                                               ; preds = %17
  store i32 0, ptr %4, align 4
  br label %22

22:                                               ; preds = %21, %20, %13
  %23 = load i32, ptr %4, align 4
  ret i32 %23
}

; Function Attrs: mustprogress nounwind uwtable
define linkonce_odr hidden { ptr, i64 } @_ZN4llvm34getInstrProfValueProfMemOpFuncNameEv() #1 comdat {
  %1 = alloca %"class.llvm::StringRef", align 8
  call void @_ZN4llvm9StringRefC2EPKc(ptr noundef nonnull align 8 dereferenceable(16) %1, ptr noundef @.str.93)
  %2 = load { ptr, i64 }, ptr %1, align 8
  ret { ptr, i64 } %2
}

; Function Attrs: mustprogress nounwind uwtable
define linkonce_odr hidden { ptr, i64 } @_ZN4llvm29getInstrProfValueProfFuncNameEv() #1 comdat {
  %1 = alloca %"class.llvm::StringRef", align 8
  call void @_ZN4llvm9StringRefC2EPKc(ptr noundef nonnull align 8 dereferenceable(16) %1, ptr noundef @.str.92)
  %2 = load { ptr, i64 }, ptr %1, align 8
  ret { ptr, i64 } %2
}

; Function Attrs: mustprogress nounwind uwtable
define linkonce_odr hidden void @_ZN4llvm8ArrayRefIPNS_4TypeEEC2ILm3EEERAT__KS2_(ptr noundef nonnull align 8 dereferenceable(16) %0, ptr noundef nonnull align 8 dereferenceable(24) %1) unnamed_addr #1 comdat align 2 {
  %3 = alloca ptr, align 8
  %4 = alloca ptr, align 8
  store ptr %0, ptr %3, align 8
  store ptr %1, ptr %4, align 8
  %5 = load ptr, ptr %3, align 8
  %6 = getelementptr inbounds nuw %"class.llvm::ArrayRef.335", ptr %5, i32 0, i32 0
  %7 = load ptr, ptr %4, align 8
  %8 = getelementptr inbounds [3 x ptr], ptr %7, i64 0, i64 0
  store ptr %8, ptr %6, align 8
  %9 = getelementptr inbounds nuw %"class.llvm::ArrayRef.335", ptr %5, i32 0, i32 1
  store i64 3, ptr %9, align 8
  ret void
}

; Function Attrs: mustprogress nounwind uwtable
define linkonce_odr hidden noundef ptr @_ZN4llvm11PointerType9getUnqualERNS_11LLVMContextE(ptr noundef nonnull align 8 dereferenceable(8) %0) #1 comdat align 2 {
  %2 = alloca ptr, align 8
  store ptr %0, ptr %2, align 8
  %3 = load ptr, ptr %2, align 8
  %4 = call noundef ptr @_ZN4llvm11PointerType3getERNS_11LLVMContextEj(ptr noundef nonnull align 8 dereferenceable(8) %3, i32 noundef 0)
  ret ptr %4
}

; Function Attrs: mustprogress nounwind uwtable
define linkonce_odr hidden ptr @_ZNK4llvm13AttributeList17addParamAttributeERNS_11LLVMContextEjNS_9Attribute8AttrKindE(ptr noundef nonnull align 8 dereferenceable(8) %0, ptr noundef nonnull align 8 dereferenceable(8) %1, i32 noundef %2, i32 noundef %3) #1 comdat align 2 {
  %5 = alloca %"class.llvm::AttributeList", align 8
  %6 = alloca ptr, align 8
  %7 = alloca ptr, align 8
  %8 = alloca i32, align 4
  %9 = alloca i32, align 4
  store ptr %0, ptr %6, align 8
  store ptr %1, ptr %7, align 8
  store i32 %2, ptr %8, align 4
  store i32 %3, ptr %9, align 4
  %10 = load ptr, ptr %6, align 8
  %11 = load ptr, ptr %7, align 8
  %12 = load i32, ptr %8, align 4
  %13 = add i32 %12, 1
  %14 = load i32, ptr %9, align 4
  %15 = call ptr @_ZNK4llvm13AttributeList19addAttributeAtIndexERNS_11LLVMContextEjNS_9Attribute8AttrKindE(ptr noundef nonnull align 8 dereferenceable(8) %10, ptr noundef nonnull align 8 dereferenceable(8) %11, i32 noundef %13, i32 noundef %14)
  %16 = getelementptr inbounds nuw %"class.llvm::AttributeList", ptr %5, i32 0, i32 0
  store ptr %15, ptr %16, align 8
  %17 = getelementptr inbounds nuw %"class.llvm::AttributeList", ptr %5, i32 0, i32 0
  %18 = load ptr, ptr %17, align 8
  ret ptr %18
}

; Function Attrs: mustprogress nounwind uwtable
define linkonce_odr hidden noundef i32 @_ZNK4llvm17TargetLibraryInfo21getExtAttrForI32ParamEb(ptr noundef nonnull align 8 dereferenceable(72) %0, i1 noundef zeroext %1) #1 comdat align 2 {
  %3 = alloca ptr, align 8
  %4 = alloca i8, align 1
  store ptr %0, ptr %3, align 8
  %5 = zext i1 %1 to i8
  store i8 %5, ptr %4, align 1
  %6 = load ptr, ptr %3, align 8
  %7 = getelementptr inbounds nuw %"class.llvm::TargetLibraryInfo", ptr %6, i32 0, i32 0
  %8 = load ptr, ptr %7, align 8
  %9 = getelementptr inbounds nuw %"class.llvm::TargetLibraryInfoImpl", ptr %8, i32 0, i32 3
  %10 = load i8, ptr %9, align 8
  %11 = trunc i8 %10 to i1
  %12 = getelementptr inbounds nuw %"class.llvm::TargetLibraryInfo", ptr %6, i32 0, i32 0
  %13 = load ptr, ptr %12, align 8
  %14 = getelementptr inbounds nuw %"class.llvm::TargetLibraryInfoImpl", ptr %13, i32 0, i32 5
  %15 = load i8, ptr %14, align 2
  %16 = trunc i8 %15 to i1
  %17 = load i8, ptr %4, align 1
  %18 = trunc i8 %17 to i1
  %19 = call noundef i32 @_ZN4llvm17TargetLibraryInfo21getExtAttrForI32ParamEbbb(i1 noundef zeroext %11, i1 noundef zeroext %16, i1 noundef zeroext %18)
  ret i32 %19
}

; Function Attrs: mustprogress nounwind uwtable
define linkonce_odr hidden void @_ZN4llvm13AttributeListC2Ev(ptr noundef nonnull align 8 dereferenceable(8) %0) unnamed_addr #1 comdat align 2 {
  %2 = alloca ptr, align 8
  store ptr %0, ptr %2, align 8
  %3 = load ptr, ptr %2, align 8
  %4 = getelementptr inbounds nuw %"class.llvm::AttributeList", ptr %3, i32 0, i32 0
  store ptr null, ptr %4, align 8
  ret void
}

; Function Attrs: mustprogress nounwind uwtable
define linkonce_odr hidden noundef nonnull align 8 dereferenceable(8) ptr @_ZNK4llvm6Module10getContextEv(ptr noundef nonnull align 8 dereferenceable(857) %0) #1 comdat align 2 {
  %2 = alloca ptr, align 8
  store ptr %0, ptr %2, align 8
  %3 = load ptr, ptr %2, align 8
  %4 = getelementptr inbounds nuw %"class.llvm::Module", ptr %3, i32 0, i32 0
  %5 = load ptr, ptr %4, align 8
  ret ptr %5
}

; Function Attrs: mustprogress nounwind uwtable
define internal { ptr, ptr } @_ZL29getOrInsertValueProfilingCallRN4llvm6ModuleERKNS_17TargetLibraryInfoEN12_GLOBAL__N_122ValueProfilingCallTypeE(ptr noundef nonnull align 8 dereferenceable(857) %0, ptr noundef nonnull align 8 dereferenceable(72) %1, i32 noundef %2) #1 {
  %4 = alloca %"class.llvm::FunctionCallee", align 8
  %5 = alloca ptr, align 8
  %6 = alloca ptr, align 8
  %7 = alloca i32, align 4
  %8 = alloca ptr, align 8
  %9 = alloca ptr, align 8
  %10 = alloca %"class.llvm::AttributeList", align 8
  %11 = alloca i32, align 4
  %12 = alloca %"class.llvm::AttributeList", align 8
  %13 = alloca [3 x ptr], align 16
  %14 = alloca ptr, align 8
  %15 = alloca %"class.llvm::ArrayRef.335", align 8
  %16 = alloca %"class.llvm::StringRef", align 8
  %17 = alloca %"class.llvm::StringRef", align 8
  %18 = alloca %"class.llvm::AttributeList", align 8
  store ptr %0, ptr %5, align 8
  store ptr %1, ptr %6, align 8
  store i32 %2, ptr %7, align 4
  %19 = load ptr, ptr %5, align 8
  %20 = call noundef nonnull align 8 dereferenceable(8) ptr @_ZNK4llvm6Module10getContextEv(ptr noundef nonnull align 8 dereferenceable(857) %19)
  store ptr %20, ptr %8, align 8
  %21 = load ptr, ptr %5, align 8
  %22 = call noundef nonnull align 8 dereferenceable(8) ptr @_ZNK4llvm6Module10getContextEv(ptr noundef nonnull align 8 dereferenceable(857) %21)
  %23 = call noundef ptr @_ZN4llvm4Type9getVoidTyERNS_11LLVMContextE(ptr noundef nonnull align 8 dereferenceable(8) %22)
  store ptr %23, ptr %9, align 8
  call void @_ZN4llvm13AttributeListC2Ev(ptr noundef nonnull align 8 dereferenceable(8) %10) #2
  %24 = load ptr, ptr %6, align 8
  %25 = call noundef i32 @_ZNK4llvm17TargetLibraryInfo21getExtAttrForI32ParamEb(ptr noundef nonnull align 8 dereferenceable(72) %24, i1 noundef zeroext false)
  store i32 %25, ptr %11, align 4
  %26 = load i32, ptr %11, align 4
  %27 = icmp ne i32 %26, 0
  br i1 %27, label %28, label %34

28:                                               ; preds = %3
  %29 = load ptr, ptr %5, align 8
  %30 = call noundef nonnull align 8 dereferenceable(8) ptr @_ZNK4llvm6Module10getContextEv(ptr noundef nonnull align 8 dereferenceable(857) %29)
  %31 = load i32, ptr %11, align 4
  %32 = call ptr @_ZNK4llvm13AttributeList17addParamAttributeERNS_11LLVMContextEjNS_9Attribute8AttrKindE(ptr noundef nonnull align 8 dereferenceable(8) %10, ptr noundef nonnull align 8 dereferenceable(8) %30, i32 noundef 2, i32 noundef %31)
  %33 = getelementptr inbounds nuw %"class.llvm::AttributeList", ptr %12, i32 0, i32 0
  store ptr %32, ptr %33, align 8
  call void @llvm.memcpy.p0.p0.i64(ptr align 8 %10, ptr align 8 %12, i64 8, i1 false)
  br label %34

34:                                               ; preds = %28, %3
  %35 = load ptr, ptr %8, align 8
  %36 = call noundef ptr @_ZN4llvm4Type10getInt64TyERNS_11LLVMContextE(ptr noundef nonnull align 8 dereferenceable(8) %35)
  store ptr %36, ptr %13, align 8
  %37 = getelementptr inbounds ptr, ptr %13, i64 1
  %38 = load ptr, ptr %8, align 8
  %39 = call noundef ptr @_ZN4llvm11PointerType9getUnqualERNS_11LLVMContextE(ptr noundef nonnull align 8 dereferenceable(8) %38)
  store ptr %39, ptr %37, align 8
  %40 = getelementptr inbounds ptr, ptr %13, i64 2
  %41 = load ptr, ptr %8, align 8
  %42 = call noundef ptr @_ZN4llvm4Type10getInt32TyERNS_11LLVMContextE(ptr noundef nonnull align 8 dereferenceable(8) %41)
  store ptr %42, ptr %40, align 8
  %43 = load ptr, ptr %9, align 8
  call void @_ZN4llvm8ArrayRefIPNS_4TypeEEC2ILm3EEERAT__KS2_(ptr noundef nonnull align 8 dereferenceable(16) %15, ptr noundef nonnull align 8 dereferenceable(24) %13)
  %44 = getelementptr inbounds nuw { ptr, i64 }, ptr %15, i32 0, i32 0
  %45 = load ptr, ptr %44, align 8
  %46 = getelementptr inbounds nuw { ptr, i64 }, ptr %15, i32 0, i32 1
  %47 = load i64, ptr %46, align 8
  %48 = call noundef ptr @_ZN4llvm12FunctionType3getEPNS_4TypeENS_8ArrayRefIS2_EEb(ptr noundef %43, ptr %45, i64 %47, i1 noundef zeroext false)
  store ptr %48, ptr %14, align 8
  %49 = load i32, ptr %7, align 4
  %50 = icmp eq i32 %49, 0
  br i1 %50, label %51, label %57

51:                                               ; preds = %34
  %52 = call { ptr, i64 } @_ZN4llvm29getInstrProfValueProfFuncNameEv()
  %53 = getelementptr inbounds nuw { ptr, i64 }, ptr %16, i32 0, i32 0
  %54 = extractvalue { ptr, i64 } %52, 0
  store ptr %54, ptr %53, align 8
  %55 = getelementptr inbounds nuw { ptr, i64 }, ptr %16, i32 0, i32 1
  %56 = extractvalue { ptr, i64 } %52, 1
  store i64 %56, ptr %55, align 8
  br label %63

57:                                               ; preds = %34
  %58 = call { ptr, i64 } @_ZN4llvm34getInstrProfValueProfMemOpFuncNameEv()
  %59 = getelementptr inbounds nuw { ptr, i64 }, ptr %16, i32 0, i32 0
  %60 = extractvalue { ptr, i64 } %58, 0
  store ptr %60, ptr %59, align 8
  %61 = getelementptr inbounds nuw { ptr, i64 }, ptr %16, i32 0, i32 1
  %62 = extractvalue { ptr, i64 } %58, 1
  store i64 %62, ptr %61, align 8
  br label %63

63:                                               ; preds = %57, %51
  %64 = load ptr, ptr %5, align 8
  call void @llvm.memcpy.p0.p0.i64(ptr align 8 %17, ptr align 8 %16, i64 16, i1 false)
  %65 = load ptr, ptr %14, align 8
  call void @llvm.memcpy.p0.p0.i64(ptr align 8 %18, ptr align 8 %10, i64 8, i1 false)
  %66 = getelementptr inbounds nuw { ptr, i64 }, ptr %17, i32 0, i32 0
  %67 = load ptr, ptr %66, align 8
  %68 = getelementptr inbounds nuw { ptr, i64 }, ptr %17, i32 0, i32 1
  %69 = load i64, ptr %68, align 8
  %70 = getelementptr inbounds nuw %"class.llvm::AttributeList", ptr %18, i32 0, i32 0
  %71 = load ptr, ptr %70, align 8
  %72 = call { ptr, ptr } @_ZN4llvm6Module19getOrInsertFunctionENS_9StringRefEPNS_12FunctionTypeENS_13AttributeListE(ptr noundef nonnull align 8 dereferenceable(857) %64, ptr %67, i64 %69, ptr noundef %65, ptr %71)
  %73 = getelementptr inbounds nuw { ptr, ptr }, ptr %4, i32 0, i32 0
  %74 = extractvalue { ptr, ptr } %72, 0
  store ptr %74, ptr %73, align 8
  %75 = getelementptr inbounds nuw { ptr, ptr }, ptr %4, i32 0, i32 1
  %76 = extractvalue { ptr, ptr } %72, 1
  store ptr %76, ptr %75, align 8
  %77 = load { ptr, ptr }, ptr %4, align 8
  ret { ptr, ptr } %77
}