; Function Attrs: mustprogress nounwind uwtable
define internal fastcc { ptr, ptr } @_ZL29getOrInsertValueProfilingCallRN4llvm6ModuleERKNS_17TargetLibraryInfoEN12_GLOBAL__N_122ValueProfilingCallTypeE(ptr noundef nonnull align 8 dereferenceable(857) %0, ptr noundef nonnull readonly align 8 captures(none) dereferenceable(72) %1, i32 noundef range(i32 0, 2) %2) unnamed_addr #0 {
  %4 = alloca %"class.llvm::AttributeList", align 8
  %5 = alloca [3 x ptr], align 16
  %6 = load ptr, ptr %0, align 8
  %7 = tail call noundef ptr @_ZN4llvm4Type9getVoidTyERNS_11LLVMContextE(ptr noundef nonnull align 8 dereferenceable(8) %6) #19
  store ptr null, ptr %4, align 8
  %8 = load ptr, ptr %1, align 8
  %9 = getelementptr inbounds nuw i8, ptr %8, i64 152
  %10 = load i8, ptr %9, align 8
  %11 = trunc i8 %10 to i1
  %12 = getelementptr inbounds nuw i8, ptr %8, i64 154
  %13 = load i8, ptr %12, align 2
  %14 = trunc i8 %13 to i1
  %..i.i = select i1 %14, i32 52, i32 0
  %.0.i.i = select i1 %11, i32 75, i32 %..i.i
  %.not = icmp eq i32 %.0.i.i, 0
  br i1 %.not, label %18, label %15

15:                                               ; preds = %3
  %16 = load ptr, ptr %0, align 8
  %17 = call ptr @_ZNK4llvm13AttributeList19addAttributeAtIndexERNS_11LLVMContextEjNS_9Attribute8AttrKindE(ptr noundef nonnull align 8 dereferenceable(8) %4, ptr noundef nonnull align 8 dereferenceable(8) %16, i32 noundef 3, i32 noundef %.0.i.i) #19
  store ptr %17, ptr %4, align 8
  br label %18

18:                                               ; preds = %15, %3
  %19 = call noundef ptr @_ZN4llvm4Type10getInt64TyERNS_11LLVMContextE(ptr noundef nonnull align 8 dereferenceable(8) %6) #19
  store ptr %19, ptr %5, align 16
  %20 = getelementptr inbounds nuw i8, ptr %5, i64 8
  %21 = call noundef ptr @_ZN4llvm11PointerType3getERNS_11LLVMContextEj(ptr noundef nonnull align 8 dereferenceable(8) %6, i32 noundef 0) #19
  store ptr %21, ptr %20, align 8
  %22 = getelementptr inbounds nuw i8, ptr %5, i64 16
  %23 = call noundef ptr @_ZN4llvm4Type10getInt32TyERNS_11LLVMContextE(ptr noundef nonnull align 8 dereferenceable(8) %6) #19
  store ptr %23, ptr %22, align 16
  %24 = call noundef ptr @_ZN4llvm12FunctionType3getEPNS_4TypeENS_8ArrayRefIS2_EEb(ptr noundef %7, ptr nonnull %5, i64 3, i1 noundef zeroext false) #19
  %25 = icmp eq i32 %2, 0
  %.sroa.3.0 = select i1 %25, i64 32, i64 31
  %.sroa.02.0 = select i1 %25, ptr @.str.92, ptr @.str.93
  %.sroa.0.0.copyload = load ptr, ptr %4, align 8
  %26 = call { ptr, ptr } @_ZN4llvm6Module19getOrInsertFunctionENS_9StringRefEPNS_12FunctionTypeENS_13AttributeListE(ptr noundef nonnull align 8 dereferenceable(857) %0, ptr nonnull %.sroa.02.0, i64 %.sroa.3.0, ptr noundef %24, ptr %.sroa.0.0.copyload) #19
  ret { ptr, ptr } %26
}